target datalayout = "e-m:e-p270:32:32-p271:32:32-p272:64:64-i64:64-i128:128-f80:128-n8:16:32:64-S128"
target triple = "x86_64-pc-linux-gnu"

@g_ascii_table = external constant ptr, align 8
@hex = internal constant [16 x i8] c"0123456789ABCDEF", align 16

; Function Attrs: inlinehint nounwind null_pointer_is_valid sspstrong uwtable
define internal zeroext i1 @escape_char(i8 noundef signext %0, ptr noundef %1) #11 {
  %3 = alloca i1, align 1
  %4 = alloca i8, align 1
  %5 = alloca ptr, align 8
  %6 = alloca i32, align 4
  %7 = alloca i32, align 4
  store i8 %0, ptr %4, align 1
  store ptr %1, ptr %5, align 8
  call void @llvm.lifetime.start.p0(i64 4, ptr %6) #15
  store i32 -1, ptr %6, align 4
  br label %8

8:                                                ; preds = %2
  br label %9

9:                                                ; preds = %8
  br label %10

10:                                               ; preds = %9
  %11 = load i8, ptr %4, align 1
  %12 = sext i8 %11 to i32
  switch i32 %12, label %22 [
    i32 7, label %13
    i32 8, label %14
    i32 12, label %15
    i32 10, label %16
    i32 13, label %17
    i32 9, label %18
    i32 11, label %19
    i32 92, label %20
    i32 0, label %21
  ]

13:                                               ; preds = %10
  store i32 97, ptr %6, align 4
  br label %22

14:                                               ; preds = %10
  store i32 98, ptr %6, align 4
  br label %22

15:                                               ; preds = %10
  store i32 102, ptr %6, align 4
  br label %22

16:                                               ; preds = %10
  store i32 110, ptr %6, align 4
  br label %22

17:                                               ; preds = %10
  store i32 114, ptr %6, align 4
  br label %22

18:                                               ; preds = %10
  store i32 116, ptr %6, align 4
  br label %22

19:                                               ; preds = %10
  store i32 118, ptr %6, align 4
  br label %22

20:                                               ; preds = %10
  store i32 92, ptr %6, align 4
  br label %22

21:                                               ; preds = %10
  store i32 48, ptr %6, align 4
  br label %22

22:                                               ; preds = %10, %21, %20, %19, %18, %17, %16, %15, %14, %13
  %23 = load i32, ptr %6, align 4
  %24 = icmp ne i32 %23, -1
  br i1 %24, label %25, label %29

25:                                               ; preds = %22
  %26 = load i32, ptr %6, align 4
  %27 = trunc i32 %26 to i8
  %28 = load ptr, ptr %5, align 8
  store i8 %27, ptr %28, align 1
  store i1 true, ptr %3, align 1
  store i32 1, ptr %7, align 4
  br label %30

29:                                               ; preds = %22
  store i1 false, ptr %3, align 1
  store i32 1, ptr %7, align 4
  br label %30

30:                                               ; preds = %29, %25
  call void @llvm.lifetime.end.p0(i64 4, ptr %6) #15
  %31 = load i1, ptr %3, align 1
  ret i1 %31
}

; Function Attrs: null_pointer_is_valid sspstrong uwtable
define ptr @format_char(ptr noundef %0, i8 noundef signext %1) #0 {
  %3 = alloca ptr, align 8
  %4 = alloca ptr, align 8
  %5 = alloca i8, align 1
  %6 = alloca ptr, align 8
  %7 = alloca i8, align 1
  %8 = alloca i32, align 4
  store ptr %0, ptr %4, align 8
  store i8 %1, ptr %5, align 1
  call void @llvm.lifetime.start.p0(i64 8, ptr %6) #15
  call void @llvm.lifetime.start.p0(i64 1, ptr %7) #15
  %9 = load ptr, ptr @g_ascii_table, align 8
  %10 = load i8, ptr %5, align 1
  %11 = zext i8 %10 to i64
  %12 = getelementptr i16, ptr %9, i64 %11
  %13 = load i16, ptr %12, align 2
  %14 = zext i16 %13 to i32
  %15 = and i32 %14, 64
  %16 = icmp ne i32 %15, 0
  br i1 %16, label %17, label %26

17:                                               ; preds = %2
  %18 = load ptr, ptr %4, align 8
  %19 = call noalias ptr @wmem_alloc(ptr noundef %18, i64 noundef 2) #17
  store ptr %19, ptr %6, align 8
  %20 = load i8, ptr %5, align 1
  %21 = load ptr, ptr %6, align 8
  %22 = getelementptr i8, ptr %21, i64 0
  store i8 %20, ptr %22, align 1
  %23 = load ptr, ptr %6, align 8
  %24 = getelementptr i8, ptr %23, i64 1
  store i8 0, ptr %24, align 1
  %25 = load ptr, ptr %6, align 8
  store ptr %25, ptr %3, align 8
  store i32 1, ptr %8, align 4
  br label %68

26:                                               ; preds = %2
  %27 = load i8, ptr %5, align 1
  %28 = call zeroext i1 @escape_char(i8 noundef signext %27, ptr noundef %7)
  br i1 %28, label %29, label %40

29:                                               ; preds = %26
  %30 = load ptr, ptr %4, align 8
  %31 = call noalias ptr @wmem_alloc(ptr noundef %30, i64 noundef 3) #17
  store ptr %31, ptr %6, align 8
  %32 = load ptr, ptr %6, align 8
  %33 = getelementptr i8, ptr %32, i64 0
  store i8 92, ptr %33, align 1
  %34 = load i8, ptr %7, align 1
  %35 = load ptr, ptr %6, align 8
  %36 = getelementptr i8, ptr %35, i64 1
  store i8 %34, ptr %36, align 1
  %37 = load ptr, ptr %6, align 8
  %38 = getelementptr i8, ptr %37, i64 2
  store i8 0, ptr %38, align 1
  %39 = load ptr, ptr %6, align 8
  store ptr %39, ptr %3, align 8
  store i32 1, ptr %8, align 4
  br label %68

40:                                               ; preds = %26
  %41 = load ptr, ptr %4, align 8
  %42 = call noalias ptr @wmem_alloc(ptr noundef %41, i64 noundef 5) #17
  store ptr %42, ptr %6, align 8
  %43 = load ptr, ptr %6, align 8
  %44 = getelementptr i8, ptr %43, i64 0
  store i8 92, ptr %44, align 1
  %45 = load ptr, ptr %6, align 8
  %46 = getelementptr i8, ptr %45, i64 1
  store i8 120, ptr %46, align 1
  %47 = load i8, ptr %5, align 1
  %48 = zext i8 %47 to i32
  %49 = ashr i32 %48, 4
  %50 = and i32 %49, 15
  %51 = sext i32 %50 to i64
  %52 = getelementptr [16 x i8], ptr @hex, i64 0, i64 %51
  %53 = load i8, ptr %52, align 1
  %54 = load ptr, ptr %6, align 8
  %55 = getelementptr i8, ptr %54, i64 2
  store i8 %53, ptr %55, align 1
  %56 = load i8, ptr %5, align 1
  %57 = zext i8 %56 to i32
  %58 = ashr i32 %57, 0
  %59 = and i32 %58, 15
  %60 = sext i32 %59 to i64
  %61 = getelementptr [16 x i8], ptr @hex, i64 0, i64 %60
  %62 = load i8, ptr %61, align 1
  %63 = load ptr, ptr %6, align 8
  %64 = getelementptr i8, ptr %63, i64 3
  store i8 %62, ptr %64, align 1
  %65 = load ptr, ptr %6, align 8
  %66 = getelementptr i8, ptr %65, i64 4
  store i8 0, ptr %66, align 1
  %67 = load ptr, ptr %6, align 8
  store ptr %67, ptr %3, align 8
  store i32 1, ptr %8, align 4
  br label %68

68:                                               ; preds = %40, %29, %17
  call void @llvm.lifetime.end.p0(i64 1, ptr %7) #15
  call void @llvm.lifetime.end.p0(i64 8, ptr %6) #15
  %69 = load ptr, ptr %3, align 8
  ret ptr %69
}