; Function Attrs: null_pointer_is_valid sspstrong uwtable
define noalias noundef ptr @format_char(ptr noundef %0, i8 noundef signext %1) local_unnamed_addr #0 {
  %3 = load ptr, ptr @g_ascii_table, align 8
  %4 = zext i8 %1 to i64
  %5 = getelementptr i16, ptr %3, i64 %4
  %6 = load i16, ptr %5, align 2
  %7 = and i16 %6, 64
  %.not = icmp eq i16 %7, 0
  br i1 %.not, label %11, label %8

8:                                                ; preds = %2
  %9 = tail call noalias dereferenceable_or_null(2) ptr @wmem_alloc(ptr noundef %0, i64 noundef 2) #25
  store i8 %1, ptr %9, align 1
  %10 = getelementptr i8, ptr %9, i64 1
  store i8 0, ptr %10, align 1
  br label %38

11:                                               ; preds = %2
  switch i8 %1, label %escape_char.exit [
    i8 7, label %19
    i8 8, label %20
    i8 12, label %12
    i8 10, label %13
    i8 13, label %14
    i8 9, label %15
    i8 11, label %16
    i8 92, label %17
    i8 0, label %18
  ]

12:                                               ; preds = %11
  br label %20

13:                                               ; preds = %11
  br label %20

14:                                               ; preds = %11
  br label %20

15:                                               ; preds = %11
  br label %20

16:                                               ; preds = %11
  br label %20

17:                                               ; preds = %11
  br label %20

18:                                               ; preds = %11
  br label %20

19:                                               ; preds = %11
  br label %20

20:                                               ; preds = %11, %18, %17, %16, %15, %14, %13, %12, %19
  %.021.ph = phi i8 [ 97, %19 ], [ 48, %18 ], [ 92, %17 ], [ 118, %16 ], [ 116, %15 ], [ 114, %14 ], [ 110, %13 ], [ 102, %12 ], [ 98, %11 ]
  %21 = tail call noalias dereferenceable_or_null(3) ptr @wmem_alloc(ptr noundef %0, i64 noundef 3) #25
  store i8 92, ptr %21, align 1
  %22 = getelementptr i8, ptr %21, i64 1
  store i8 %.021.ph, ptr %22, align 1
  %23 = getelementptr i8, ptr %21, i64 2
  store i8 0, ptr %23, align 1
  br label %38

escape_char.exit:                                 ; preds = %11
  %24 = tail call noalias dereferenceable_or_null(5) ptr @wmem_alloc(ptr noundef %0, i64 noundef 5) #25
  store i8 92, ptr %24, align 1
  %25 = getelementptr i8, ptr %24, i64 1
  store i8 120, ptr %25, align 1
  %26 = zext i8 %1 to i32
  %27 = lshr i32 %26, 4
  %28 = zext nneg i32 %27 to i64
  %29 = getelementptr [16 x i8], ptr @hex, i64 0, i64 %28
  %30 = load i8, ptr %29, align 1
  %31 = getelementptr i8, ptr %24, i64 2
  store i8 %30, ptr %31, align 1
  %32 = and i32 %26, 15
  %33 = zext nneg i32 %32 to i64
  %34 = getelementptr [16 x i8], ptr @hex, i64 0, i64 %33
  %35 = load i8, ptr %34, align 1
  %36 = getelementptr i8, ptr %24, i64 3
  store i8 %35, ptr %36, align 1
  %37 = getelementptr i8, ptr %24, i64 4
  store i8 0, ptr %37, align 1
  br label %38

38:                                               ; preds = %escape_char.exit, %20, %8
  %.0 = phi ptr [ %9, %8 ], [ %21, %20 ], [ %24, %escape_char.exit ]
  ret ptr %.0
}